target datalayout = "e-m:e-p270:32:32-p271:32:32-p272:64:64-i64:64-i128:128-f80:128-n8:16:32:64-S128"
target triple = "x86_64-pc-linux-gnu"

%struct.malloc_state = type { i32, i32, i64, i64, ptr, ptr, ptr, i64, i64, i64, [66 x ptr], [32 x ptr], i64, i64, i64, i32, i32, %struct.malloc_segment, ptr, i64 }
%struct.malloc_segment = type { ptr, i64, ptr, i32 }
%struct.malloc_chunk = type { i64, i64, ptr, ptr }

; Function Attrs: nounwind uwtable
define internal i32 @spin_acquire_lock(ptr noundef %0) #0 {
  %2 = alloca ptr, align 8
  %3 = alloca i32, align 4
  store ptr %0, ptr %2, align 8, !tbaa !16
  call void @llvm.lifetime.start.p0(i64 4, ptr %3) #9
  store i32 0, ptr %3, align 4, !tbaa !14
  br label %4

4:                                                ; preds = %21, %1
  %5 = load ptr, ptr %2, align 8, !tbaa !16
  %6 = load volatile i32, ptr %5, align 4, !tbaa !14
  %7 = icmp ne i32 %6, 0
  br i1 %7, label %12, label %8

8:                                                ; preds = %4
  %9 = load ptr, ptr %2, align 8, !tbaa !16
  %10 = atomicrmw xchg ptr %9, i32 1 seq_cst, align 4
  %11 = icmp ne i32 %10, 0
  br label %12

12:                                               ; preds = %8, %4
  %13 = phi i1 [ true, %4 ], [ %11, %8 ]
  br i1 %13, label %14, label %22

14:                                               ; preds = %12
  %15 = load i32, ptr %3, align 4, !tbaa !14
  %16 = add nsw i32 %15, 1
  store i32 %16, ptr %3, align 4, !tbaa !14
  %17 = and i32 %16, 63
  %18 = icmp eq i32 %17, 0
  br i1 %18, label %19, label %21

19:                                               ; preds = %14
  %20 = call i32 @sched_yield() #9
  br label %21

21:                                               ; preds = %19, %14
  br label %4, !llvm.loop !34

22:                                               ; preds = %12
  call void @llvm.lifetime.end.p0(i64 4, ptr %3) #9
  ret i32 0
}

; Function Attrs: nounwind uwtable
define hidden ptr @mspace_realloc(ptr noundef %0, ptr noundef %1, i64 noundef %2) #0 {
  %4 = alloca ptr, align 8
  %5 = alloca ptr, align 8
  %6 = alloca i64, align 8
  %7 = alloca ptr, align 8
  %8 = alloca i64, align 8
  %9 = alloca ptr, align 8
  %10 = alloca ptr, align 8
  %11 = alloca ptr, align 8
  %12 = alloca i64, align 8
  store ptr %0, ptr %4, align 8, !tbaa !16
  store ptr %1, ptr %5, align 8, !tbaa !16
  store i64 %2, ptr %6, align 8, !tbaa !3
  call void @llvm.lifetime.start.p0(i64 8, ptr %7) #9
  store ptr null, ptr %7, align 8, !tbaa !16
  %13 = load ptr, ptr %5, align 8, !tbaa !16
  %14 = icmp eq ptr %13, null
  br i1 %14, label %15, label %19

15:                                               ; preds = %3
  %16 = load ptr, ptr %4, align 8, !tbaa !16
  %17 = load i64, ptr %6, align 8, !tbaa !3
  %18 = call ptr @mspace_malloc(ptr noundef %16, i64 noundef %17)
  store ptr %18, ptr %7, align 8, !tbaa !16
  br label %109

19:                                               ; preds = %3
  %20 = load i64, ptr %6, align 8, !tbaa !3
  %21 = icmp uge i64 %20, -128
  br i1 %21, label %22, label %24

22:                                               ; preds = %19
  %23 = call ptr @__errno_location() #11
  store i32 12, ptr %23, align 4, !tbaa !14
  br label %108

24:                                               ; preds = %19
  call void @llvm.lifetime.start.p0(i64 8, ptr %8) #9
  %25 = load i64, ptr %6, align 8, !tbaa !3
  %26 = icmp ult i64 %25, 23
  br i1 %26, label %27, label %28

27:                                               ; preds = %24
  br label %33

28:                                               ; preds = %24
  %29 = load i64, ptr %6, align 8, !tbaa !3
  %30 = add i64 %29, 8
  %31 = add i64 %30, 15
  %32 = and i64 %31, -16
  br label %33

33:                                               ; preds = %28, %27
  %34 = phi i64 [ 32, %27 ], [ %32, %28 ]
  store i64 %34, ptr %8, align 8, !tbaa !3
  call void @llvm.lifetime.start.p0(i64 8, ptr %9) #9
  %35 = load ptr, ptr %5, align 8, !tbaa !16
  %36 = getelementptr inbounds i8, ptr %35, i64 -16
  store ptr %36, ptr %9, align 8, !tbaa !16
  call void @llvm.lifetime.start.p0(i64 8, ptr %10) #9
  %37 = load ptr, ptr %4, align 8, !tbaa !16
  store ptr %37, ptr %10, align 8, !tbaa !16
  %38 = load ptr, ptr %10, align 8, !tbaa !16
  %39 = getelementptr inbounds nuw %struct.malloc_state, ptr %38, i32 0, i32 15
  %40 = load i32, ptr %39, align 8, !tbaa !10
  %41 = and i32 %40, 2
  %42 = icmp ne i32 %41, 0
  br i1 %42, label %43, label %54

43:                                               ; preds = %33
  %44 = load ptr, ptr %10, align 8, !tbaa !16
  %45 = getelementptr inbounds nuw %struct.malloc_state, ptr %44, i32 0, i32 16
  %46 = atomicrmw xchg ptr %45, i32 1 seq_cst, align 4
  %47 = icmp ne i32 %46, 0
  br i1 %47, label %48, label %53

48:                                               ; preds = %43
  %49 = load ptr, ptr %10, align 8, !tbaa !16
  %50 = getelementptr inbounds nuw %struct.malloc_state, ptr %49, i32 0, i32 16
  %51 = call i32 @spin_acquire_lock(ptr noundef %50)
  %52 = icmp ne i32 %51, 0
  br i1 %52, label %107, label %55

53:                                               ; preds = %43
  br i1 false, label %107, label %55

54:                                               ; preds = %33
  br i1 false, label %107, label %55

55:                                               ; preds = %54, %53, %48
  call void @llvm.lifetime.start.p0(i64 8, ptr %11) #9
  %56 = load ptr, ptr %10, align 8, !tbaa !16
  %57 = load ptr, ptr %9, align 8, !tbaa !16
  %58 = load i64, ptr %8, align 8, !tbaa !3
  %59 = call ptr @try_realloc_chunk(ptr noundef %56, ptr noundef %57, i64 noundef %58, i32 noundef 1)
  store ptr %59, ptr %11, align 8, !tbaa !16
  %60 = load ptr, ptr %10, align 8, !tbaa !16
  %61 = getelementptr inbounds nuw %struct.malloc_state, ptr %60, i32 0, i32 15
  %62 = load i32, ptr %61, align 8, !tbaa !10
  %63 = and i32 %62, 2
  %64 = icmp ne i32 %63, 0
  br i1 %64, label %65, label %68

65:                                               ; preds = %55
  %66 = load ptr, ptr %10, align 8, !tbaa !16
  %67 = getelementptr inbounds nuw %struct.malloc_state, ptr %66, i32 0, i32 16
  store atomic i32 0, ptr %67 release, align 4
  br label %68

68:                                               ; preds = %65, %55
  %69 = load ptr, ptr %11, align 8, !tbaa !16
  %70 = icmp ne ptr %69, null
  br i1 %70, label %71, label %74

71:                                               ; preds = %68
  %72 = load ptr, ptr %11, align 8, !tbaa !16
  %73 = getelementptr inbounds nuw i8, ptr %72, i64 16
  store ptr %73, ptr %7, align 8, !tbaa !16
  br label %106

74:                                               ; preds = %68
  %75 = load ptr, ptr %10, align 8, !tbaa !16
  %76 = load i64, ptr %6, align 8, !tbaa !3
  %77 = call ptr @mspace_malloc(ptr noundef %75, i64 noundef %76)
  store ptr %77, ptr %7, align 8, !tbaa !16
  %78 = load ptr, ptr %7, align 8, !tbaa !16
  %79 = icmp ne ptr %78, null
  br i1 %79, label %80, label %105

80:                                               ; preds = %74
  call void @llvm.lifetime.start.p0(i64 8, ptr %12) #9
  %81 = load ptr, ptr %9, align 8, !tbaa !16
  %82 = getelementptr inbounds nuw %struct.malloc_chunk, ptr %81, i32 0, i32 1
  %83 = load i64, ptr %82, align 8, !tbaa !21
  %84 = and i64 %83, -8
  %85 = load ptr, ptr %9, align 8, !tbaa !16
  %86 = getelementptr inbounds nuw %struct.malloc_chunk, ptr %85, i32 0, i32 1
  %87 = load i64, ptr %86, align 8, !tbaa !21
  %88 = and i64 %87, 3
  %89 = icmp eq i64 %88, 0
  %90 = select i1 %89, i64 16, i64 8
  %91 = sub i64 %84, %90
  store i64 %91, ptr %12, align 8, !tbaa !3
  %92 = load ptr, ptr %7, align 8, !tbaa !16
  %93 = load ptr, ptr %5, align 8, !tbaa !16
  %94 = load i64, ptr %12, align 8, !tbaa !3
  %95 = load i64, ptr %6, align 8, !tbaa !3
  %96 = icmp ult i64 %94, %95
  br i1 %96, label %97, label %99

97:                                               ; preds = %80
  %98 = load i64, ptr %12, align 8, !tbaa !3
  br label %101

99:                                               ; preds = %80
  %100 = load i64, ptr %6, align 8, !tbaa !3
  br label %101

101:                                              ; preds = %99, %97
  %102 = phi i64 [ %98, %97 ], [ %100, %99 ]
  call void @llvm.memcpy.p0.p0.i64(ptr align 1 %92, ptr align 1 %93, i64 %102, i1 false)
  %103 = load ptr, ptr %10, align 8, !tbaa !16
  %104 = load ptr, ptr %5, align 8, !tbaa !16
  call void @mspace_free(ptr noundef %103, ptr noundef %104)
  call void @llvm.lifetime.end.p0(i64 8, ptr %12) #9
  br label %105

105:                                              ; preds = %101, %74
  br label %106

106:                                              ; preds = %105, %71
  call void @llvm.lifetime.end.p0(i64 8, ptr %11) #9
  br label %107

107:                                              ; preds = %106, %54, %53, %48
  call void @llvm.lifetime.end.p0(i64 8, ptr %10) #9
  call void @llvm.lifetime.end.p0(i64 8, ptr %9) #9
  call void @llvm.lifetime.end.p0(i64 8, ptr %8) #9
  br label %108

108:                                              ; preds = %107, %22
  br label %109

109:                                              ; preds = %108, %15
  %110 = load ptr, ptr %7, align 8, !tbaa !16
  call void @llvm.lifetime.end.p0(i64 8, ptr %7) #9
  ret ptr %110
}