; Function Attrs: nounwind uwtable
define hidden ptr @mspace_realloc(ptr noundef %0, ptr noundef %1, i64 noundef %2) local_unnamed_addr #0 {
  %4 = icmp eq ptr %1, null
  br i1 %4, label %5, label %7

5:                                                ; preds = %3
  %6 = tail call ptr @mspace_malloc(ptr noundef %0, i64 noundef %2)
  br label %49

7:                                                ; preds = %3
  %8 = icmp ugt i64 %2, -129
  br i1 %8, label %9, label %11

9:                                                ; preds = %7
  %10 = tail call ptr @__errno_location() #19
  store i32 12, ptr %10, align 4, !tbaa !13
  br label %49

11:                                               ; preds = %7
  %12 = icmp ult i64 %2, 23
  %13 = add nuw i64 %2, 23
  %14 = and i64 %13, -16
  %15 = select i1 %12, i64 32, i64 %14
  %16 = getelementptr inbounds i8, ptr %1, i64 -16
  %17 = getelementptr inbounds nuw i8, ptr %0, i64 880
  %18 = load i32, ptr %17, align 8, !tbaa !9
  %19 = and i32 %18, 2
  %.not = icmp eq i32 %19, 0
  br i1 %.not, label %spin_acquire_lock.exit, label %20

20:                                               ; preds = %11
  %21 = getelementptr inbounds nuw i8, ptr %0, i64 884
  %22 = atomicrmw xchg ptr %21, i32 1 seq_cst, align 4
  %.not36 = icmp eq i32 %22, 0
  br i1 %.not36, label %spin_acquire_lock.exit, label %.preheader

.preheader:                                       ; preds = %20, %.preheader.backedge
  %.0.i = phi i32 [ %26, %.preheader.backedge ], [ 0, %20 ]
  %23 = load volatile i32, ptr %21, align 4, !tbaa !13
  %.not.i = icmp eq i32 %23, 0
  br i1 %.not.i, label %24, label %.critedge.i

24:                                               ; preds = %.preheader
  %25 = atomicrmw xchg ptr %21, i32 1 seq_cst, align 4
  %.not2.i = icmp eq i32 %25, 0
  br i1 %.not2.i, label %spin_acquire_lock.exit, label %.critedge.i

.critedge.i:                                      ; preds = %24, %.preheader
  %26 = add nuw nsw i32 %.0.i, 1
  %27 = and i32 %26, 63
  %28 = icmp eq i32 %27, 0
  br i1 %28, label %29, label %.preheader.backedge

29:                                               ; preds = %.critedge.i
  %30 = tail call i32 @sched_yield() #17
  br label %.preheader.backedge

.preheader.backedge:                              ; preds = %29, %.critedge.i
  br label %.preheader, !llvm.loop !14

spin_acquire_lock.exit:                           ; preds = %24, %11, %20
  %31 = tail call fastcc ptr @try_realloc_chunk(ptr noundef nonnull %0, ptr noundef %16, i64 noundef %15, i32 noundef 1)
  %32 = load i32, ptr %17, align 8, !tbaa !9
  %33 = and i32 %32, 2
  %.not37 = icmp eq i32 %33, 0
  br i1 %.not37, label %36, label %34

34:                                               ; preds = %spin_acquire_lock.exit
  %35 = getelementptr inbounds nuw i8, ptr %0, i64 884
  store atomic i32 0, ptr %35 release, align 4
  br label %36

36:                                               ; preds = %34, %spin_acquire_lock.exit
  %.not38 = icmp eq ptr %31, null
  br i1 %.not38, label %39, label %37

37:                                               ; preds = %36
  %38 = getelementptr inbounds nuw i8, ptr %31, i64 16
  br label %49

39:                                               ; preds = %36
  %40 = tail call ptr @mspace_malloc(ptr noundef nonnull %0, i64 noundef %2)
  %.not39 = icmp eq ptr %40, null
  br i1 %.not39, label %49, label %41

41:                                               ; preds = %39
  %42 = getelementptr inbounds i8, ptr %1, i64 -8
  %43 = load i64, ptr %42, align 8, !tbaa !23
  %44 = and i64 %43, -8
  %45 = and i64 %43, 3
  %46 = icmp eq i64 %45, 0
  %.neg = select i1 %46, i64 -16, i64 -8
  %47 = add i64 %.neg, %44
  %48 = tail call i64 @llvm.umin.i64(i64 %47, i64 %2)
  tail call void @llvm.memcpy.p0.p0.i64(ptr nonnull align 1 %40, ptr nonnull align 1 %1, i64 %48, i1 false)
  tail call void @mspace_free(ptr noundef nonnull %0, ptr noundef nonnull %1)
  br label %49

49:                                               ; preds = %39, %41, %37, %9, %5
  %.0 = phi ptr [ %6, %5 ], [ null, %9 ], [ %38, %37 ], [ %40, %41 ], [ null, %39 ]
  ret ptr %.0
}